target datalayout = "e-m:e-p270:32:32-p271:32:32-p272:64:64-i64:64-i128:128-f80:128-n8:16:32:64-S128"
target triple = "x86_64-pc-linux-gnu"

%struct.RelationData = type { %struct.RelFileLocator, ptr, i32, i32, i8, i8, i8, i8, i8, i32, i32, i32, i32, ptr, ptr, i32, %struct.LockInfoData, ptr, ptr, ptr, ptr, ptr, i8, ptr, ptr, ptr, ptr, ptr, ptr, i32, ptr, i8, ptr, ptr, i32, i8, i32, ptr, i8, ptr, ptr, ptr, ptr, ptr, ptr, ptr, i32, ptr, ptr, ptr, ptr, ptr, ptr, ptr, ptr, ptr, ptr, ptr, ptr, ptr, ptr, ptr, ptr, ptr, ptr, ptr, i32, i8, ptr }
%struct.RelFileLocator = type { i32, i32, i32 }
%struct.LockInfoData = type { %struct.LockRelId }
%struct.LockRelId = type { i32, i32 }
%struct.IndexTupleData = type { %struct.ItemPointerData, i16 }
%struct.ItemPointerData = type { %struct.BlockIdData, i16 }
%struct.BlockIdData = type { i16, i16 }

; Function Attrs: nounwind uwtable
define dso_local zeroext i1 @btinsert(ptr noundef %0, ptr noundef %1, ptr noundef %2, ptr noundef %3, ptr noundef %4, i32 noundef %5, i1 noundef zeroext %6, ptr noundef %7) #0 {
  %9 = alloca ptr, align 8
  %10 = alloca ptr, align 8
  %11 = alloca ptr, align 8
  %12 = alloca ptr, align 8
  %13 = alloca ptr, align 8
  %14 = alloca i32, align 4
  %15 = alloca i8, align 1
  %16 = alloca ptr, align 8
  %17 = alloca i8, align 1
  %18 = alloca ptr, align 8
  store ptr %0, ptr %9, align 8
  store ptr %1, ptr %10, align 8
  store ptr %2, ptr %11, align 8
  store ptr %3, ptr %12, align 8
  store ptr %4, ptr %13, align 8
  store i32 %5, ptr %14, align 4
  %19 = zext i1 %6 to i8
  store i8 %19, ptr %15, align 1
  store ptr %7, ptr %16, align 8
  call void @llvm.lifetime.start.p0(i64 1, ptr %17) #8
  call void @llvm.lifetime.start.p0(i64 8, ptr %18) #8
  %20 = load ptr, ptr %9, align 8
  %21 = getelementptr inbounds nuw %struct.RelationData, ptr %20, i32 0, i32 14
  %22 = load ptr, ptr %21, align 8
  %23 = load ptr, ptr %10, align 8
  %24 = load ptr, ptr %11, align 8
  %25 = call ptr @index_form_tuple(ptr noundef %22, ptr noundef %23, ptr noundef %24)
  store ptr %25, ptr %18, align 8
  %26 = load ptr, ptr %18, align 8
  %27 = getelementptr inbounds nuw %struct.IndexTupleData, ptr %26, i32 0, i32 0
  %28 = load ptr, ptr %12, align 8
  call void @llvm.memcpy.p0.p0.i64(ptr align 2 %27, ptr align 2 %28, i64 6, i1 false)
  %29 = load ptr, ptr %9, align 8
  %30 = load ptr, ptr %18, align 8
  %31 = load i32, ptr %14, align 4
  %32 = load i8, ptr %15, align 1, !range !4, !noundef !5
  %33 = trunc i8 %32 to i1
  %34 = load ptr, ptr %13, align 8
  %35 = call zeroext i1 @_bt_doinsert(ptr noundef %29, ptr noundef %30, i32 noundef %31, i1 noundef zeroext %33, ptr noundef %34)
  %36 = zext i1 %35 to i8
  store i8 %36, ptr %17, align 1
  %37 = load ptr, ptr %18, align 8
  call void @pfree(ptr noundef %37)
  %38 = load i8, ptr %17, align 1, !range !4, !noundef !5
  %39 = trunc i8 %38 to i1
  call void @llvm.lifetime.end.p0(i64 8, ptr %18) #8
  call void @llvm.lifetime.end.p0(i64 1, ptr %17) #8
  ret i1 %39
}