; Function Attrs: nounwind uwtable
define dso_local zeroext i1 @btinsert(ptr noundef %0, ptr noundef %1, ptr noundef %2, ptr noundef readonly captures(none) %3, ptr noundef %4, i32 noundef %5, i1 noundef zeroext %6, ptr readnone captures(none) %7) #0 {
  %9 = getelementptr inbounds nuw i8, ptr %0, i64 64
  %10 = load ptr, ptr %9, align 8
  %11 = tail call ptr @index_form_tuple(ptr noundef %10, ptr noundef %1, ptr noundef %2) #8
  tail call void @llvm.memcpy.p0.p0.i64(ptr noundef nonnull align 2 dereferenceable(6) %11, ptr noundef nonnull align 2 dereferenceable(6) %3, i64 6, i1 false)
  %12 = tail call zeroext i1 @_bt_doinsert(ptr noundef %0, ptr noundef nonnull %11, i32 noundef %5, i1 noundef zeroext %6, ptr noundef %4) #8
  tail call void @pfree(ptr noundef nonnull %11) #8
  ret i1 %12
}